; ModuleID = '37/1070.c'
source_filename = "37/1070.c"
target datalayout = "e-m:e-p270:32:32-p271:32:32-p272:64:64-i64:64-f80:128-n8:16:32:64-S128"
target triple = "x86_64-pc-linux-gnu"

@.str = private unnamed_addr constant [3 x i8] c"%d\00", align 1
@.str.1 = private unnamed_addr constant [4 x i8] c"%c\0A\00", align 1
@.str.2 = private unnamed_addr constant [4 x i8] c"no\0A\00", align 1

; Function Attrs: noinline nounwind uwtable
define dso_local i32 @main() #0 {
  %1 = alloca i32, align 4
  %2 = alloca [100000 x i8], align 16
  %3 = alloca [26 x i32], align 16
  %4 = alloca i32, align 4
  %5 = alloca i32, align 4
  %6 = alloca i32, align 4
  %7 = alloca i32, align 4
  %8 = alloca i32, align 4
  store i32 0, i32* %1, align 4
  %9 = bitcast [26 x i32]* %3 to i8*
  call void @llvm.memset.p0i8.i64(i8* align 16 %9, i8 0, i64 104, i1 false)
  %10 = call i32 (i8*, ...) @__isoc99_scanf(i8* getelementptr inbounds ([3 x i8], [3 x i8]* @.str, i64 0, i64 0), i32* %6)
  %11 = call i32 @getchar()
  store i32 0, i32* %4, align 4
  br label %12

12:                                               ; preds = %75, %0
  %13 = load i32, i32* %4, align 4
  %14 = load i32, i32* %6, align 4
  %15 = icmp slt i32 %13, %14
  br i1 %15, label %16, label %78

16:                                               ; preds = %12
  store i32 0, i32* %8, align 4
  %17 = getelementptr inbounds [100000 x i8], [100000 x i8]* %2, i64 0, i64 0
  %18 = call i32 (i8*, ...) bitcast (i32 (...)* @gets to i32 (i8*, ...)*)(i8* %17)
  %19 = getelementptr inbounds [100000 x i8], [100000 x i8]* %2, i64 0, i64 0
  %20 = call i64 @strlen(i8* %19) #4
  %21 = trunc i64 %20 to i32
  store i32 %21, i32* %5, align 4
  store i32 0, i32* %7, align 4
  br label %22

22:                                               ; preds = %37, %16
  %23 = load i32, i32* %7, align 4
  %24 = load i32, i32* %5, align 4
  %25 = icmp slt i32 %23, %24
  br i1 %25, label %26, label %40

26:                                               ; preds = %22
  %27 = load i32, i32* %7, align 4
  %28 = sext i32 %27 to i64
  %29 = getelementptr inbounds [100000 x i8], [100000 x i8]* %2, i64 0, i64 %28
  %30 = load i8, i8* %29, align 1
  %31 = sext i8 %30 to i32
  %32 = sub nsw i32 %31, 97
  %33 = sext i32 %32 to i64
  %34 = getelementptr inbounds [26 x i32], [26 x i32]* %3, i64 0, i64 %33
  %35 = load i32, i32* %34, align 4
  %36 = add nsw i32 %35, 1
  store i32 %36, i32* %34, align 4
  br label %37

37:                                               ; preds = %26
  %38 = load i32, i32* %7, align 4
  %39 = add nsw i32 %38, 1
  store i32 %39, i32* %7, align 4
  br label %22

40:                                               ; preds = %22
  store i32 0, i32* %7, align 4
  br label %41

41:                                               ; preds = %64, %40
  %42 = load i32, i32* %7, align 4
  %43 = load i32, i32* %5, align 4
  %44 = icmp slt i32 %42, %43
  br i1 %44, label %45, label %67

45:                                               ; preds = %41
  %46 = load i32, i32* %7, align 4
  %47 = sext i32 %46 to i64
  %48 = getelementptr inbounds [100000 x i8], [100000 x i8]* %2, i64 0, i64 %47
  %49 = load i8, i8* %48, align 1
  %50 = sext i8 %49 to i32
  %51 = sub nsw i32 %50, 97
  %52 = sext i32 %51 to i64
  %53 = getelementptr inbounds [26 x i32], [26 x i32]* %3, i64 0, i64 %52
  %54 = load i32, i32* %53, align 4
  %55 = icmp eq i32 %54, 1
  br i1 %55, label %56, label %63

56:                                               ; preds = %45
  %57 = load i32, i32* %7, align 4
  %58 = sext i32 %57 to i64
  %59 = getelementptr inbounds [100000 x i8], [100000 x i8]* %2, i64 0, i64 %58
  %60 = load i8, i8* %59, align 1
  %61 = sext i8 %60 to i32
  %62 = call i32 (i8*, ...) @printf(i8* getelementptr inbounds ([4 x i8], [4 x i8]* @.str.1, i64 0, i64 0), i32 %61)
  store i32 1, i32* %8, align 4
  br label %67

63:                                               ; preds = %45
  br label %64

64:                                               ; preds = %63
  %65 = load i32, i32* %7, align 4
  %66 = add nsw i32 %65, 1
  store i32 %66, i32* %7, align 4
  br label %41

67:                                               ; preds = %56, %41
  %68 = getelementptr inbounds [26 x i32], [26 x i32]* %3, i64 0, i64 0
  %69 = bitcast i32* %68 to i8*
  call void @llvm.memset.p0i8.i64(i8* align 16 %69, i8 0, i64 104, i1 false)
  %70 = load i32, i32* %8, align 4
  %71 = icmp ne i32 %70, 1
  br i1 %71, label %72, label %74

72:                                               ; preds = %67
  %73 = call i32 (i8*, ...) @printf(i8* getelementptr inbounds ([4 x i8], [4 x i8]* @.str.2, i64 0, i64 0))
  br label %74

74:                                               ; preds = %72, %67
  br label %75

75:                                               ; preds = %74
  %76 = load i32, i32* %4, align 4
  %77 = add nsw i32 %76, 1
  store i32 %77, i32* %4, align 4
  br label %12

78:                                               ; preds = %12
  ret i32 0
}

; Function Attrs: argmemonly nounwind willreturn
declare void @llvm.memset.p0i8.i64(i8* nocapture writeonly, i8, i64, i1 immarg) #1

declare dso_local i32 @__isoc99_scanf(i8*, ...) #2

declare dso_local i32 @getchar() #2

declare dso_local i32 @gets(...) #2

; Function Attrs: nounwind readonly
declare dso_local i64 @strlen(i8*) #3

declare dso_local i32 @printf(i8*, ...) #2


!llvm.module.flags = !{!0}
!llvm.ident = !{!1}

!0 = !{i32 1, !"wchar_size", i32 4}
!1 = !{!"clang version 10.0.0-4ubuntu1 "}
