; ModuleID = 'source-C-CXX/36/1070.c'
source_filename = "source-C-CXX/36/1070.c"
target datalayout = "e-m:e-p270:32:32-p271:32:32-p272:64:64-i64:64-f80:128-n8:16:32:64-S128"
target triple = "x86_64-pc-linux-gnu"

%struct._IO_FILE = type { i32, i8*, i8*, i8*, i8*, i8*, i8*, i8*, i8*, i8*, i8*, i8*, %struct._IO_marker*, %struct._IO_FILE*, i32, i32, i64, i16, i8, [1 x i8], i8*, i64, %struct._IO_codecvt*, %struct._IO_wide_data*, %struct._IO_FILE*, i8*, i64, i32, [20 x i8] }
%struct._IO_marker = type opaque
%struct._IO_codecvt = type opaque
%struct._IO_wide_data = type opaque

@.str = private unnamed_addr constant [3 x i8] c"%d\00", align 1
@.str.1 = private unnamed_addr constant [4 x i8] c"%c\0A\00", align 1
@stdin = external local_unnamed_addr global %struct._IO_FILE*, align 8
@str = private unnamed_addr constant [3 x i8] c"no\00", align 1

; Function Attrs: nounwind sspstrong uwtable
define dso_local i32 @main() local_unnamed_addr #0 {
  %1 = alloca [100000 x i8], align 16
  %2 = alloca [26 x i32], align 16
  %3 = alloca i32, align 4
  %4 = getelementptr inbounds [100000 x i8], [100000 x i8]* %1, i64 0, i64 0
  call void @llvm.lifetime.start.p0i8(i64 100000, i8* nonnull %4) #7
  %5 = bitcast [26 x i32]* %2 to i8*
  call void @llvm.lifetime.start.p0i8(i64 104, i8* nonnull %5) #7
  call void @llvm.memset.p0i8.i64(i8* noundef nonnull align 16 dereferenceable(104) %5, i8 0, i64 104, i1 false)
  %6 = bitcast i32* %3 to i8*
  call void @llvm.lifetime.start.p0i8(i64 4, i8* nonnull %6) #7
  %7 = call i32 (i8*, ...) @__isoc99_scanf(i8* getelementptr inbounds ([3 x i8], [3 x i8]* @.str, i64 0, i64 0), i32* nonnull %3)
  %8 = load %struct._IO_FILE*, %struct._IO_FILE** @stdin, align 8, !tbaa !5
  %9 = call i32 @getc(%struct._IO_FILE* %8) #7
  %10 = load i32, i32* %3, align 4, !tbaa !9
  %11 = icmp sgt i32 %10, 0
  br i1 %11, label %12, label %80

12:                                               ; preds = %0, %76
  %13 = phi i32 [ %77, %76 ], [ 0, %0 ]
  %14 = call i32 (i8*, ...) bitcast (i32 (...)* @gets to i32 (i8*, ...)*)(i8* nonnull %4) #7
  %15 = call i64 @strlen(i8* noundef nonnull %4) #8
  %16 = trunc i64 %15 to i32
  %17 = icmp sgt i32 %16, 0
  br i1 %17, label %18, label %74

18:                                               ; preds = %12
  %19 = and i64 %15, 4294967295
  %20 = and i64 %15, 1
  %21 = icmp eq i64 %19, 1
  br i1 %21, label %24, label %22

22:                                               ; preds = %18
  %23 = sub nsw i64 %19, %20
  br label %38

24:                                               ; preds = %38, %18
  %25 = phi i64 [ 0, %18 ], [ %56, %38 ]
  %26 = icmp eq i64 %20, 0
  br i1 %26, label %35, label %27

27:                                               ; preds = %24
  %28 = getelementptr inbounds [100000 x i8], [100000 x i8]* %1, i64 0, i64 %25
  %29 = load i8, i8* %28, align 1, !tbaa !11
  %30 = sext i8 %29 to i64
  %31 = add nsw i64 %30, -97
  %32 = getelementptr inbounds [26 x i32], [26 x i32]* %2, i64 0, i64 %31
  %33 = load i32, i32* %32, align 4, !tbaa !9
  %34 = add nsw i32 %33, 1
  store i32 %34, i32* %32, align 4, !tbaa !9
  br label %35

35:                                               ; preds = %24, %27
  br i1 %17, label %36, label %74

36:                                               ; preds = %35
  %37 = and i64 %15, 4294967295
  br label %61

38:                                               ; preds = %38, %22
  %39 = phi i64 [ 0, %22 ], [ %56, %38 ]
  %40 = phi i64 [ %23, %22 ], [ %57, %38 ]
  %41 = getelementptr inbounds [100000 x i8], [100000 x i8]* %1, i64 0, i64 %39
  %42 = load i8, i8* %41, align 2, !tbaa !11
  %43 = sext i8 %42 to i64
  %44 = add nsw i64 %43, -97
  %45 = getelementptr inbounds [26 x i32], [26 x i32]* %2, i64 0, i64 %44
  %46 = load i32, i32* %45, align 4, !tbaa !9
  %47 = add nsw i32 %46, 1
  store i32 %47, i32* %45, align 4, !tbaa !9
  %48 = or i64 %39, 1
  %49 = getelementptr inbounds [100000 x i8], [100000 x i8]* %1, i64 0, i64 %48
  %50 = load i8, i8* %49, align 1, !tbaa !11
  %51 = sext i8 %50 to i64
  %52 = add nsw i64 %51, -97
  %53 = getelementptr inbounds [26 x i32], [26 x i32]* %2, i64 0, i64 %52
  %54 = load i32, i32* %53, align 4, !tbaa !9
  %55 = add nsw i32 %54, 1
  store i32 %55, i32* %53, align 4, !tbaa !9
  %56 = add nuw nsw i64 %39, 2
  %57 = add i64 %40, -2
  %58 = icmp eq i64 %57, 0
  br i1 %58, label %24, label %38, !llvm.loop !12

59:                                               ; preds = %61
  %60 = icmp eq i64 %70, %37
  br i1 %60, label %74, label %61, !llvm.loop !14

61:                                               ; preds = %36, %59
  %62 = phi i64 [ 0, %36 ], [ %70, %59 ]
  %63 = getelementptr inbounds [100000 x i8], [100000 x i8]* %1, i64 0, i64 %62
  %64 = load i8, i8* %63, align 1, !tbaa !11
  %65 = sext i8 %64 to i64
  %66 = add nsw i64 %65, -97
  %67 = getelementptr inbounds [26 x i32], [26 x i32]* %2, i64 0, i64 %66
  %68 = load i32, i32* %67, align 4, !tbaa !9
  %69 = icmp eq i32 %68, 1
  %70 = add nuw nsw i64 %62, 1
  br i1 %69, label %71, label %59

71:                                               ; preds = %61
  %72 = sext i8 %64 to i32
  %73 = call i32 (i8*, ...) @printf(i8* nonnull dereferenceable(1) getelementptr inbounds ([4 x i8], [4 x i8]* @.str.1, i64 0, i64 0), i32 %72)
  call void @llvm.memset.p0i8.i64(i8* noundef nonnull align 16 dereferenceable(104) %5, i8 0, i64 104, i1 false)
  br label %76

74:                                               ; preds = %59, %12, %35
  call void @llvm.memset.p0i8.i64(i8* noundef nonnull align 16 dereferenceable(104) %5, i8 0, i64 104, i1 false)
  %75 = call i32 @puts(i8* nonnull dereferenceable(1) getelementptr inbounds ([3 x i8], [3 x i8]* @str, i64 0, i64 0))
  br label %76

76:                                               ; preds = %71, %74
  %77 = add nuw nsw i32 %13, 1
  %78 = load i32, i32* %3, align 4, !tbaa !9
  %79 = icmp slt i32 %77, %78
  br i1 %79, label %12, label %80, !llvm.loop !15

80:                                               ; preds = %76, %0
  call void @llvm.lifetime.end.p0i8(i64 4, i8* nonnull %6) #7
  call void @llvm.lifetime.end.p0i8(i64 104, i8* nonnull %5) #7
  call void @llvm.lifetime.end.p0i8(i64 100000, i8* nonnull %4) #7
  ret i32 0
}

; Function Attrs: argmemonly mustprogress nofree nosync nounwind willreturn
declare void @llvm.lifetime.start.p0i8(i64 immarg, i8* nocapture) #1

; Function Attrs: argmemonly mustprogress nofree nounwind willreturn writeonly
declare void @llvm.memset.p0i8.i64(i8* nocapture writeonly, i8, i64, i1 immarg) #2

; Function Attrs: nofree nounwind
declare noundef i32 @__isoc99_scanf(i8* nocapture noundef readonly, ...) local_unnamed_addr #3

declare i32 @gets(...) local_unnamed_addr #4

; Function Attrs: argmemonly mustprogress nofree nounwind readonly willreturn
declare i64 @strlen(i8* nocapture) local_unnamed_addr #5

; Function Attrs: nofree nounwind
declare noundef i32 @printf(i8* nocapture noundef readonly, ...) local_unnamed_addr #3

; Function Attrs: argmemonly mustprogress nofree nosync nounwind willreturn
declare void @llvm.lifetime.end.p0i8(i64 immarg, i8* nocapture) #1

; Function Attrs: nofree nounwind
declare noundef i32 @getc(%struct._IO_FILE* nocapture noundef) local_unnamed_addr #3

; Function Attrs: nofree nounwind
declare noundef i32 @puts(i8* nocapture noundef readonly) local_unnamed_addr #6


!llvm.module.flags = !{!0, !1, !2, !3}
!llvm.ident = !{!4}

!0 = !{i32 1, !"wchar_size", i32 4}
!1 = !{i32 7, !"PIC Level", i32 2}
!2 = !{i32 7, !"PIE Level", i32 2}
!3 = !{i32 7, !"uwtable", i32 1}
!4 = !{!"clang version 13.0.0"}
!5 = !{!6, !6, i64 0}
!6 = !{!"any pointer", !7, i64 0}
!7 = !{!"omnipotent char", !8, i64 0}
!8 = !{!"Simple C/C++ TBAA"}
!9 = !{!10, !10, i64 0}
!10 = !{!"int", !7, i64 0}
!11 = !{!7, !7, i64 0}
!12 = distinct !{!12, !13}
!13 = !{!"llvm.loop.mustprogress"}
!14 = distinct !{!14, !13}
!15 = distinct !{!15, !13}
